; ModuleID = 'source-C-CXX/36/1881.c'
source_filename = "source-C-CXX/36/1881.c"
target datalayout = "e-m:e-p270:32:32-p271:32:32-p272:64:64-i64:64-f80:128-n8:16:32:64-S128"
target triple = "x86_64-pc-linux-gnu"

@.str = private unnamed_addr constant [3 x i8] c"%d\00", align 1
@.str.1 = private unnamed_addr constant [3 x i8] c"%s\00", align 1
@.str.2 = private unnamed_addr constant [4 x i8] c"%c\0A\00", align 1
@str = private unnamed_addr constant [3 x i8] c"no\00", align 1

; Function Attrs: nofree nounwind sspstrong uwtable
define dso_local i32 @main() local_unnamed_addr #0 {
  %1 = alloca i32, align 4
  %2 = alloca [100000 x i8], align 16
  %3 = alloca [100000 x i32], align 16
  %4 = bitcast i32* %1 to i8*
  call void @llvm.lifetime.start.p0i8(i64 4, i8* nonnull %4) #5
  %5 = getelementptr inbounds [100000 x i8], [100000 x i8]* %2, i64 0, i64 0
  call void @llvm.lifetime.start.p0i8(i64 100000, i8* nonnull %5) #5
  %6 = bitcast [100000 x i32]* %3 to i8*
  call void @llvm.lifetime.start.p0i8(i64 400000, i8* nonnull %6) #5
  %7 = call i32 (i8*, ...) @__isoc99_scanf(i8* getelementptr inbounds ([3 x i8], [3 x i8]* @.str, i64 0, i64 0), i32* nonnull %1)
  %8 = load i32, i32* %1, align 4, !tbaa !5
  %9 = icmp sgt i32 %8, 0
  br i1 %9, label %10, label %66

10:                                               ; preds = %0
  %11 = getelementptr inbounds [100000 x i32], [100000 x i32]* %3, i64 0, i64 0
  br label %12

12:                                               ; preds = %10, %62
  %13 = phi i32 [ %63, %62 ], [ 0, %10 ]
  call void @llvm.memset.p0i8.i64(i8* noundef nonnull align 16 dereferenceable(100000) %5, i8 0, i64 100000, i1 false)
  call void @llvm.memset.p0i8.i64(i8* noundef nonnull align 16 dereferenceable(400000) %6, i8 0, i64 400000, i1 false)
  %14 = call i32 (i8*, ...) @__isoc99_scanf(i8* getelementptr inbounds ([3 x i8], [3 x i8]* @.str.1, i64 0, i64 0), i8* nonnull %5)
  %15 = load i8, i8* %5, align 16, !tbaa !9
  %16 = icmp eq i8 %15, 0
  br i1 %16, label %60, label %23

17:                                               ; preds = %40
  %18 = load i8, i8* %5, align 16, !tbaa !9
  %19 = icmp eq i8 %18, 0
  br i1 %19, label %60, label %20

20:                                               ; preds = %17
  %21 = load i32, i32* %11, align 16, !tbaa !5
  %22 = icmp eq i32 %21, 1
  br i1 %22, label %56, label %46

23:                                               ; preds = %12, %40
  %24 = phi i64 [ %41, %40 ], [ 0, %12 ]
  %25 = phi i64 [ %45, %40 ], [ 1, %12 ]
  %26 = phi i8 [ %43, %40 ], [ %15, %12 ]
  br label %27

27:                                               ; preds = %23, %37
  %28 = phi i64 [ 0, %23 ], [ %38, %37 ]
  %29 = getelementptr inbounds [100000 x i8], [100000 x i8]* %2, i64 0, i64 %28
  %30 = load i8, i8* %29, align 1, !tbaa !9
  %31 = icmp eq i8 %26, %30
  br i1 %31, label %32, label %37

32:                                               ; preds = %27
  %33 = and i64 %28, 4294967295
  %34 = getelementptr inbounds [100000 x i32], [100000 x i32]* %3, i64 0, i64 %33
  %35 = load i32, i32* %34, align 4, !tbaa !5
  %36 = add nsw i32 %35, 1
  store i32 %36, i32* %34, align 4, !tbaa !5
  br label %40

37:                                               ; preds = %27
  %38 = add nuw nsw i64 %28, 1
  %39 = icmp eq i64 %38, %25
  br i1 %39, label %40, label %27, !llvm.loop !10

40:                                               ; preds = %37, %32
  %41 = add nuw i64 %24, 1
  %42 = getelementptr inbounds [100000 x i8], [100000 x i8]* %2, i64 0, i64 %41
  %43 = load i8, i8* %42, align 1, !tbaa !9
  %44 = icmp eq i8 %43, 0
  %45 = add nuw i64 %25, 1
  br i1 %44, label %17, label %23, !llvm.loop !12

46:                                               ; preds = %20, %51
  %47 = phi i64 [ %55, %51 ], [ 1, %20 ]
  %48 = getelementptr inbounds [100000 x i8], [100000 x i8]* %2, i64 0, i64 %47
  %49 = load i8, i8* %48, align 1, !tbaa !9
  %50 = icmp eq i8 %49, 0
  br i1 %50, label %60, label %51, !llvm.loop !13

51:                                               ; preds = %46
  %52 = getelementptr inbounds [100000 x i32], [100000 x i32]* %3, i64 0, i64 %47
  %53 = load i32, i32* %52, align 4, !tbaa !5
  %54 = icmp eq i32 %53, 1
  %55 = add nuw i64 %47, 1
  br i1 %54, label %56, label %46, !llvm.loop !13

56:                                               ; preds = %51, %20
  %57 = phi i8 [ %18, %20 ], [ %49, %51 ]
  %58 = sext i8 %57 to i32
  %59 = call i32 (i8*, ...) @printf(i8* nonnull dereferenceable(1) getelementptr inbounds ([4 x i8], [4 x i8]* @.str.2, i64 0, i64 0), i32 %58)
  br label %62

60:                                               ; preds = %46, %12, %17
  %61 = call i32 @puts(i8* nonnull dereferenceable(1) getelementptr inbounds ([3 x i8], [3 x i8]* @str, i64 0, i64 0))
  br label %62

62:                                               ; preds = %56, %60
  %63 = add nuw nsw i32 %13, 1
  %64 = load i32, i32* %1, align 4, !tbaa !5
  %65 = icmp slt i32 %63, %64
  br i1 %65, label %12, label %66, !llvm.loop !14

66:                                               ; preds = %62, %0
  call void @llvm.lifetime.end.p0i8(i64 400000, i8* nonnull %6) #5
  call void @llvm.lifetime.end.p0i8(i64 100000, i8* nonnull %5) #5
  call void @llvm.lifetime.end.p0i8(i64 4, i8* nonnull %4) #5
  ret i32 0
}

; Function Attrs: argmemonly mustprogress nofree nosync nounwind willreturn
declare void @llvm.lifetime.start.p0i8(i64 immarg, i8* nocapture) #1

; Function Attrs: argmemonly mustprogress nofree nounwind willreturn writeonly
declare void @llvm.memset.p0i8.i64(i8* nocapture writeonly, i8, i64, i1 immarg) #2

; Function Attrs: nofree nounwind
declare noundef i32 @__isoc99_scanf(i8* nocapture noundef readonly, ...) local_unnamed_addr #3

; Function Attrs: nofree nounwind
declare noundef i32 @printf(i8* nocapture noundef readonly, ...) local_unnamed_addr #3

; Function Attrs: argmemonly mustprogress nofree nosync nounwind willreturn
declare void @llvm.lifetime.end.p0i8(i64 immarg, i8* nocapture) #1

; Function Attrs: nofree nounwind
declare noundef i32 @puts(i8* nocapture noundef readonly) local_unnamed_addr #4


!llvm.module.flags = !{!0, !1, !2, !3}
!llvm.ident = !{!4}

!0 = !{i32 1, !"wchar_size", i32 4}
!1 = !{i32 7, !"PIC Level", i32 2}
!2 = !{i32 7, !"PIE Level", i32 2}
!3 = !{i32 7, !"uwtable", i32 1}
!4 = !{!"clang version 13.0.0"}
!5 = !{!6, !6, i64 0}
!6 = !{!"int", !7, i64 0}
!7 = !{!"omnipotent char", !8, i64 0}
!8 = !{!"Simple C/C++ TBAA"}
!9 = !{!7, !7, i64 0}
!10 = distinct !{!10, !11}
!11 = !{!"llvm.loop.mustprogress"}
!12 = distinct !{!12, !11}
!13 = distinct !{!13, !11}
!14 = distinct !{!14, !11}
